target datalayout = "e-m:e-p270:32:32-p271:32:32-p272:64:64-i64:64-i128:128-f80:128-n8:16:32:64-S128"
target triple = "x86_64-pc-linux-gnu"

%struct._generic_N_Vector = type { ptr, ptr, ptr }
%struct._N_VectorContent_Serial = type { i64, i32, ptr }

; Function Attrs: nounwind uwtable
define internal i32 @f(double noundef %0, ptr noundef %1, ptr noundef %2, ptr noundef %3) #0 {
  %5 = alloca double, align 8
  %6 = alloca ptr, align 8
  %7 = alloca ptr, align 8
  %8 = alloca ptr, align 8
  %9 = alloca double, align 8
  %10 = alloca double, align 8
  %11 = alloca double, align 8
  store double %0, ptr %5, align 8, !tbaa !4
  store ptr %1, ptr %6, align 8, !tbaa !12
  store ptr %2, ptr %7, align 8, !tbaa !12
  store ptr %3, ptr %8, align 8, !tbaa !19
  call void @llvm.lifetime.start.p0(i64 8, ptr %9) #5
  %12 = load ptr, ptr %6, align 8, !tbaa !12
  %13 = getelementptr inbounds nuw %struct._generic_N_Vector, ptr %12, i32 0, i32 0
  %14 = load ptr, ptr %13, align 8, !tbaa !22
  %15 = getelementptr inbounds nuw %struct._N_VectorContent_Serial, ptr %14, i32 0, i32 2
  %16 = load ptr, ptr %15, align 8, !tbaa !25
  %17 = getelementptr inbounds double, ptr %16, i64 0
  %18 = load double, ptr %17, align 8, !tbaa !4
  store double %18, ptr %9, align 8, !tbaa !4
  call void @llvm.lifetime.start.p0(i64 8, ptr %10) #5
  %19 = load ptr, ptr %6, align 8, !tbaa !12
  %20 = getelementptr inbounds nuw %struct._generic_N_Vector, ptr %19, i32 0, i32 0
  %21 = load ptr, ptr %20, align 8, !tbaa !22
  %22 = getelementptr inbounds nuw %struct._N_VectorContent_Serial, ptr %21, i32 0, i32 2
  %23 = load ptr, ptr %22, align 8, !tbaa !25
  %24 = getelementptr inbounds double, ptr %23, i64 1
  %25 = load double, ptr %24, align 8, !tbaa !4
  store double %25, ptr %10, align 8, !tbaa !4
  call void @llvm.lifetime.start.p0(i64 8, ptr %11) #5
  %26 = load ptr, ptr %6, align 8, !tbaa !12
  %27 = getelementptr inbounds nuw %struct._generic_N_Vector, ptr %26, i32 0, i32 0
  %28 = load ptr, ptr %27, align 8, !tbaa !22
  %29 = getelementptr inbounds nuw %struct._N_VectorContent_Serial, ptr %28, i32 0, i32 2
  %30 = load ptr, ptr %29, align 8, !tbaa !25
  %31 = getelementptr inbounds double, ptr %30, i64 2
  %32 = load double, ptr %31, align 8, !tbaa !4
  store double %32, ptr %11, align 8, !tbaa !4
  %33 = load double, ptr %9, align 8, !tbaa !4
  %34 = load double, ptr %10, align 8, !tbaa !4
  %35 = fmul double 1.000000e+04, %34
  %36 = load double, ptr %11, align 8, !tbaa !4
  %37 = fmul double %35, %36
  %38 = call double @llvm.fmuladd.f64(double -4.000000e-02, double %33, double %37)
  %39 = load ptr, ptr %7, align 8, !tbaa !12
  %40 = getelementptr inbounds nuw %struct._generic_N_Vector, ptr %39, i32 0, i32 0
  %41 = load ptr, ptr %40, align 8, !tbaa !22
  %42 = getelementptr inbounds nuw %struct._N_VectorContent_Serial, ptr %41, i32 0, i32 2
  %43 = load ptr, ptr %42, align 8, !tbaa !25
  %44 = getelementptr inbounds double, ptr %43, i64 0
  store double %38, ptr %44, align 8, !tbaa !4
  %45 = load double, ptr %9, align 8, !tbaa !4
  %46 = load double, ptr %10, align 8, !tbaa !4
  %47 = fmul double 1.000000e+04, %46
  %48 = load double, ptr %11, align 8, !tbaa !4
  %49 = fmul double %47, %48
  %50 = fneg double %49
  %51 = call double @llvm.fmuladd.f64(double 4.000000e-02, double %45, double %50)
  %52 = load double, ptr %10, align 8, !tbaa !4
  %53 = fmul double 3.000000e+07, %52
  %54 = load double, ptr %10, align 8, !tbaa !4
  %55 = fneg double %53
  %56 = call double @llvm.fmuladd.f64(double %55, double %54, double %51)
  %57 = load ptr, ptr %7, align 8, !tbaa !12
  %58 = getelementptr inbounds nuw %struct._generic_N_Vector, ptr %57, i32 0, i32 0
  %59 = load ptr, ptr %58, align 8, !tbaa !22
  %60 = getelementptr inbounds nuw %struct._N_VectorContent_Serial, ptr %59, i32 0, i32 2
  %61 = load ptr, ptr %60, align 8, !tbaa !25
  %62 = getelementptr inbounds double, ptr %61, i64 1
  store double %56, ptr %62, align 8, !tbaa !4
  %63 = load double, ptr %10, align 8, !tbaa !4
  %64 = fmul double 3.000000e+07, %63
  %65 = load double, ptr %10, align 8, !tbaa !4
  %66 = fmul double %64, %65
  %67 = load ptr, ptr %7, align 8, !tbaa !12
  %68 = getelementptr inbounds nuw %struct._generic_N_Vector, ptr %67, i32 0, i32 0
  %69 = load ptr, ptr %68, align 8, !tbaa !22
  %70 = getelementptr inbounds nuw %struct._N_VectorContent_Serial, ptr %69, i32 0, i32 2
  %71 = load ptr, ptr %70, align 8, !tbaa !25
  %72 = getelementptr inbounds double, ptr %71, i64 2
  store double %66, ptr %72, align 8, !tbaa !4
  call void @llvm.lifetime.end.p0(i64 8, ptr %11) #5
  call void @llvm.lifetime.end.p0(i64 8, ptr %10) #5
  call void @llvm.lifetime.end.p0(i64 8, ptr %9) #5
  ret i32 0
}